target datalayout = "e-m:e-p270:32:32-p271:32:32-p272:64:64-i64:64-i128:128-f80:128-n8:16:32:64-S128"
target triple = "x86_64-pc-linux-gnu"

%struct.dh_named_group_st = type { ptr, i32, i32, i32, ptr, ptr, ptr }

; Function Attrs: nounwind uwtable
define ptr @ossl_ffc_numbers_to_dh_named_group(ptr noundef %0, ptr noundef %1, ptr noundef %2) #0 {
  %4 = alloca ptr, align 8
  %5 = alloca ptr, align 8
  %6 = alloca ptr, align 8
  %7 = alloca ptr, align 8
  %8 = alloca i64, align 8
  %9 = alloca i32, align 4
  store ptr %0, ptr %5, align 8, !tbaa !19
  store ptr %1, ptr %6, align 8, !tbaa !19
  store ptr %2, ptr %7, align 8, !tbaa !19
  call void @llvm.lifetime.start.p0(i64 8, ptr %8) #3
  store i64 0, ptr %8, align 8, !tbaa !8
  br label %10

10:                                               ; preds = %44, %3
  %11 = load i64, ptr %8, align 8, !tbaa !8
  %12 = icmp ult i64 %11, 14
  br i1 %12, label %13, label %47

13:                                               ; preds = %10
  %14 = load ptr, ptr %5, align 8, !tbaa !19
  %15 = load i64, ptr %8, align 8, !tbaa !8
  %16 = getelementptr inbounds nuw [14 x %struct.dh_named_group_st], ptr @dh_named_groups, i64 0, i64 %15
  %17 = getelementptr inbounds nuw %struct.dh_named_group_st, ptr %16, i32 0, i32 4
  %18 = load ptr, ptr %17, align 8, !tbaa !20
  %19 = call i32 @BN_cmp(ptr noundef %14, ptr noundef %18)
  %20 = icmp eq i32 %19, 0
  br i1 %20, label %21, label %43

21:                                               ; preds = %13
  %22 = load ptr, ptr %7, align 8, !tbaa !19
  %23 = load i64, ptr %8, align 8, !tbaa !8
  %24 = getelementptr inbounds nuw [14 x %struct.dh_named_group_st], ptr @dh_named_groups, i64 0, i64 %23
  %25 = getelementptr inbounds nuw %struct.dh_named_group_st, ptr %24, i32 0, i32 6
  %26 = load ptr, ptr %25, align 8, !tbaa !21
  %27 = call i32 @BN_cmp(ptr noundef %22, ptr noundef %26)
  %28 = icmp eq i32 %27, 0
  br i1 %28, label %29, label %43

29:                                               ; preds = %21
  %30 = load ptr, ptr %6, align 8, !tbaa !19
  %31 = icmp eq ptr %30, null
  br i1 %31, label %40, label %32

32:                                               ; preds = %29
  %33 = load ptr, ptr %6, align 8, !tbaa !19
  %34 = load i64, ptr %8, align 8, !tbaa !8
  %35 = getelementptr inbounds nuw [14 x %struct.dh_named_group_st], ptr @dh_named_groups, i64 0, i64 %34
  %36 = getelementptr inbounds nuw %struct.dh_named_group_st, ptr %35, i32 0, i32 5
  %37 = load ptr, ptr %36, align 16, !tbaa !22
  %38 = call i32 @BN_cmp(ptr noundef %33, ptr noundef %37)
  %39 = icmp eq i32 %38, 0
  br i1 %39, label %40, label %43

40:                                               ; preds = %32, %29
  %41 = load i64, ptr %8, align 8, !tbaa !8
  %42 = getelementptr inbounds nuw [14 x %struct.dh_named_group_st], ptr @dh_named_groups, i64 0, i64 %41
  store ptr %42, ptr %4, align 8
  store i32 1, ptr %9, align 4
  br label %48

43:                                               ; preds = %32, %21, %13
  br label %44

44:                                               ; preds = %43
  %45 = load i64, ptr %8, align 8, !tbaa !8
  %46 = add i64 %45, 1
  store i64 %46, ptr %8, align 8, !tbaa !8
  br label %10, !llvm.loop !23

47:                                               ; preds = %10
  store ptr null, ptr %4, align 8
  store i32 1, ptr %9, align 4
  br label %48

48:                                               ; preds = %47, %40
  call void @llvm.lifetime.end.p0(i64 8, ptr %8) #3
  %49 = load ptr, ptr %4, align 8
  ret ptr %49
}