; Function Attrs: nounwind uwtable
define ptr @ossl_ffc_numbers_to_dh_named_group(ptr noundef %0, ptr noundef %1, ptr noundef %2) local_unnamed_addr #0 {
  %4 = icmp eq ptr %1, null
  br i1 %4, label %.split.us, label %.split

.split.us:                                        ; preds = %3, %15
  %.012.us = phi i64 [ %16, %15 ], [ 0, %3 ]
  %5 = getelementptr inbounds nuw [14 x %struct.dh_named_group_st], ptr @dh_named_groups, i64 0, i64 %.012.us
  %6 = getelementptr inbounds nuw i8, ptr %5, i64 24
  %7 = load ptr, ptr %6, align 8, !tbaa !15
  %8 = tail call i32 @BN_cmp(ptr noundef %0, ptr noundef %7) #4
  %9 = icmp eq i32 %8, 0
  br i1 %9, label %10, label %15

10:                                               ; preds = %.split.us
  %11 = getelementptr inbounds nuw i8, ptr %5, i64 40
  %12 = load ptr, ptr %11, align 8, !tbaa !16
  %13 = tail call i32 @BN_cmp(ptr noundef %2, ptr noundef %12) #4
  %14 = icmp eq i32 %13, 0
  br i1 %14, label %.split14.us, label %15

15:                                               ; preds = %10, %.split.us
  %16 = add nuw nsw i64 %.012.us, 1
  %exitcond18.not = icmp eq i64 %16, 14
  br i1 %exitcond18.not, label %.split14.us, label %.split.us, !llvm.loop !17

.split:                                           ; preds = %3, %32
  %.012 = phi i64 [ %33, %32 ], [ 0, %3 ]
  %17 = getelementptr inbounds nuw [14 x %struct.dh_named_group_st], ptr @dh_named_groups, i64 0, i64 %.012
  %18 = getelementptr inbounds nuw i8, ptr %17, i64 24
  %19 = load ptr, ptr %18, align 8, !tbaa !15
  %20 = tail call i32 @BN_cmp(ptr noundef %0, ptr noundef %19) #4
  %21 = icmp eq i32 %20, 0
  br i1 %21, label %22, label %32

22:                                               ; preds = %.split
  %23 = getelementptr inbounds nuw i8, ptr %17, i64 40
  %24 = load ptr, ptr %23, align 8, !tbaa !16
  %25 = tail call i32 @BN_cmp(ptr noundef %2, ptr noundef %24) #4
  %26 = icmp eq i32 %25, 0
  br i1 %26, label %27, label %32

27:                                               ; preds = %22
  %28 = getelementptr inbounds nuw i8, ptr %17, i64 32
  %29 = load ptr, ptr %28, align 16, !tbaa !18
  %30 = tail call i32 @BN_cmp(ptr noundef nonnull %1, ptr noundef %29) #4
  %31 = icmp eq i32 %30, 0
  br i1 %31, label %.split14.us, label %32

32:                                               ; preds = %.split, %22, %27
  %33 = add nuw nsw i64 %.012, 1
  %exitcond.not = icmp eq i64 %33, 14
  br i1 %exitcond.not, label %.split14.us, label %.split, !llvm.loop !17

.split14.us:                                      ; preds = %27, %32, %10, %15
  %.us-phi = phi ptr [ %5, %10 ], [ null, %15 ], [ %17, %27 ], [ null, %32 ]
  ret ptr %.us-phi
}